target datalayout = "e-m:e-p270:32:32-p271:32:32-p272:64:64-i64:64-i128:128-f80:128-n8:16:32:64-S128"
target triple = "x86_64-pc-linux-gnu"

%struct.AVxWorker = type { ptr, i32, ptr, ptr, ptr, ptr, i32 }

; Function Attrs: nounwind uwtable
define internal void @execute(ptr noundef %0) #0 {
  %2 = alloca ptr, align 8
  store ptr %0, ptr %2, align 8
  %3 = load ptr, ptr %2, align 8
  %4 = getelementptr inbounds nuw %struct.AVxWorker, ptr %3, i32 0, i32 3
  %5 = load ptr, ptr %4, align 8
  %6 = icmp ne ptr %5, null
  br i1 %6, label %7, label %25

7:                                                ; preds = %1
  %8 = load ptr, ptr %2, align 8
  %9 = getelementptr inbounds nuw %struct.AVxWorker, ptr %8, i32 0, i32 3
  %10 = load ptr, ptr %9, align 8
  %11 = load ptr, ptr %2, align 8
  %12 = getelementptr inbounds nuw %struct.AVxWorker, ptr %11, i32 0, i32 4
  %13 = load ptr, ptr %12, align 8
  %14 = load ptr, ptr %2, align 8
  %15 = getelementptr inbounds nuw %struct.AVxWorker, ptr %14, i32 0, i32 5
  %16 = load ptr, ptr %15, align 8
  %17 = call i32 %10(ptr noundef %13, ptr noundef %16)
  %18 = icmp ne i32 %17, 0
  %19 = xor i1 %18, true
  %20 = zext i1 %19 to i32
  %21 = load ptr, ptr %2, align 8
  %22 = getelementptr inbounds nuw %struct.AVxWorker, ptr %21, i32 0, i32 6
  %23 = load i32, ptr %22, align 8
  %24 = or i32 %23, %20
  store i32 %24, ptr %22, align 8
  br label %25

25:                                               ; preds = %7, %1
  ret void
}