; Function Attrs: nounwind uwtable
define internal void @execute(ptr noundef captures(none) %0) #4 {
  %2 = getelementptr inbounds nuw i8, ptr %0, i64 24
  %3 = load ptr, ptr %2, align 8
  %.not = icmp eq ptr %3, null
  br i1 %.not, label %14, label %4

4:                                                ; preds = %1
  %5 = getelementptr inbounds nuw i8, ptr %0, i64 32
  %6 = load ptr, ptr %5, align 8
  %7 = getelementptr inbounds nuw i8, ptr %0, i64 40
  %8 = load ptr, ptr %7, align 8
  %9 = tail call i32 %3(ptr noundef %6, ptr noundef %8) #10
  %.not5 = icmp eq i32 %9, 0
  %10 = zext i1 %.not5 to i32
  %11 = getelementptr inbounds nuw i8, ptr %0, i64 48
  %12 = load i32, ptr %11, align 8
  %13 = or i32 %12, %10
  store i32 %13, ptr %11, align 8
  br label %14

14:                                               ; preds = %4, %1
  ret void
}